target datalayout = "e-m:e-p270:32:32-p271:32:32-p272:64:64-i64:64-i128:128-f80:128-n8:16:32:64-S128"
target triple = "x86_64-pc-linux-gnu"

%struct.commit = type { %struct.object, i64, ptr, ptr, i32 }
%struct.object = type { i32, %struct.object_id }
%struct.object_id = type { [32 x i8], i32 }
%struct.repository = type { ptr, ptr, ptr, ptr, ptr, %struct.strmap, %struct.strmap, %struct.repo_path_cache, ptr, ptr, ptr, ptr, %struct.repo_settings, ptr, ptr, ptr, ptr, ptr, ptr, i32, i32, i32, ptr, ptr, i32, i32, i8 }
%struct.strmap = type { %struct.hashmap, ptr, i8 }
%struct.hashmap = type { ptr, ptr, ptr, i32, i32, i32, i32, i8 }
%struct.repo_path_cache = type { ptr, ptr, ptr, ptr, ptr, ptr, ptr }
%struct.repo_settings = type { i32, i32, i32, i32, i32, i32, i32, i32, i32, i32, i32, i32, ptr, i32, i32, i32, i32, i32, i32, i32, i64, i64, i64 }
%struct.parsed_object_pool = type { ptr, ptr, i32, i32, ptr, ptr, ptr, ptr, ptr, ptr, i32, i32, i32, ptr, ptr, i32, i32, ptr }
%struct.buffer_slab = type { i32, i32, i32, ptr }
%struct.commit_buffer = type { ptr, i64 }

@.str.4 = private unnamed_addr constant [29 x i8] c"cannot read commit object %s\00", align 1
@.str.5 = private unnamed_addr constant [31 x i8] c"expected commit for %s, got %s\00", align 1
@.str.37 = private unnamed_addr constant [27 x i8] c"size_t overflow: %lu * %lu\00", align 1

; Function Attrs: inlinehint nounwind uwtable
define internal i64 @st_mult(i64 noundef %0, i64 noundef %1) #4 {
  %3 = alloca i64, align 8
  %4 = alloca i64, align 8
  store i64 %0, ptr %3, align 8, !tbaa !47
  store i64 %1, ptr %4, align 8, !tbaa !47
  %5 = load i64, ptr %3, align 8, !tbaa !47
  %6 = icmp ne i64 %5, 0
  br i1 %6, label %7, label %15

7:                                                ; preds = %2
  %8 = load i64, ptr %4, align 8, !tbaa !47
  %9 = load i64, ptr %3, align 8, !tbaa !47
  %10 = udiv i64 -1, %9
  %11 = icmp ugt i64 %8, %10
  br i1 %11, label %12, label %15

12:                                               ; preds = %7
  %13 = load i64, ptr %3, align 8, !tbaa !47
  %14 = load i64, ptr %4, align 8, !tbaa !47
  call void (ptr, ...) @die(ptr noundef @.str.37, i64 noundef %13, i64 noundef %14) #12
  unreachable

15:                                               ; preds = %7, %2
  %16 = load i64, ptr %3, align 8, !tbaa !47
  %17 = load i64, ptr %4, align 8, !tbaa !47
  %18 = mul i64 %16, %17
  ret i64 %18
}

; Function Attrs: nounwind uwtable
define internal ptr @buffer_slab_at_peek(ptr noundef %0, ptr noundef %1, i32 noundef %2) #0 {
  %4 = alloca ptr, align 8
  %5 = alloca ptr, align 8
  %6 = alloca ptr, align 8
  %7 = alloca i32, align 4
  %8 = alloca i32, align 4
  %9 = alloca i32, align 4
  %10 = alloca i32, align 4
  %11 = alloca i32, align 4
  store ptr %0, ptr %5, align 8, !tbaa !78
  store ptr %1, ptr %6, align 8, !tbaa !17
  store i32 %2, ptr %7, align 4, !tbaa !11
  call void @llvm.lifetime.start.p0(i64 4, ptr %8) #11
  call void @llvm.lifetime.start.p0(i64 4, ptr %9) #11
  %12 = load ptr, ptr %6, align 8, !tbaa !17
  %13 = getelementptr inbounds nuw %struct.commit, ptr %12, i32 0, i32 4
  %14 = load i32, ptr %13, align 8, !tbaa !95
  %15 = load ptr, ptr %5, align 8, !tbaa !78
  %16 = getelementptr inbounds nuw %struct.buffer_slab, ptr %15, i32 0, i32 0
  %17 = load i32, ptr %16, align 8, !tbaa !230
  %18 = udiv i32 %14, %17
  store i32 %18, ptr %8, align 4, !tbaa !11
  %19 = load ptr, ptr %6, align 8, !tbaa !17
  %20 = getelementptr inbounds nuw %struct.commit, ptr %19, i32 0, i32 4
  %21 = load i32, ptr %20, align 8, !tbaa !95
  %22 = load ptr, ptr %5, align 8, !tbaa !78
  %23 = getelementptr inbounds nuw %struct.buffer_slab, ptr %22, i32 0, i32 0
  %24 = load i32, ptr %23, align 8, !tbaa !230
  %25 = urem i32 %21, %24
  store i32 %25, ptr %9, align 4, !tbaa !11
  %26 = load ptr, ptr %5, align 8, !tbaa !78
  %27 = getelementptr inbounds nuw %struct.buffer_slab, ptr %26, i32 0, i32 2
  %28 = load i32, ptr %27, align 8, !tbaa !79
  %29 = load i32, ptr %8, align 4, !tbaa !11
  %30 = icmp ule i32 %28, %29
  br i1 %30, label %31, label %71

31:                                               ; preds = %3
  call void @llvm.lifetime.start.p0(i64 4, ptr %10) #11
  %32 = load i32, ptr %7, align 4, !tbaa !11
  %33 = icmp ne i32 %32, 0
  br i1 %33, label %35, label %34

34:                                               ; preds = %31
  store ptr null, ptr %4, align 8
  store i32 1, ptr %11, align 4
  br label %68

35:                                               ; preds = %31
  %36 = load ptr, ptr %5, align 8, !tbaa !78
  %37 = getelementptr inbounds nuw %struct.buffer_slab, ptr %36, i32 0, i32 3
  %38 = load ptr, ptr %37, align 8, !tbaa !82
  %39 = load i32, ptr %8, align 4, !tbaa !11
  %40 = add i32 %39, 1
  %41 = zext i32 %40 to i64
  %42 = call i64 @st_mult(i64 noundef 8, i64 noundef %41)
  %43 = call ptr @xrealloc(ptr noundef %38, i64 noundef %42)
  %44 = load ptr, ptr %5, align 8, !tbaa !78
  %45 = getelementptr inbounds nuw %struct.buffer_slab, ptr %44, i32 0, i32 3
  store ptr %43, ptr %45, align 8, !tbaa !82
  %46 = load ptr, ptr %5, align 8, !tbaa !78
  %47 = getelementptr inbounds nuw %struct.buffer_slab, ptr %46, i32 0, i32 2
  %48 = load i32, ptr %47, align 8, !tbaa !79
  store i32 %48, ptr %10, align 4, !tbaa !11
  br label %49

49:                                               ; preds = %60, %35
  %50 = load i32, ptr %10, align 4, !tbaa !11
  %51 = load i32, ptr %8, align 4, !tbaa !11
  %52 = icmp ule i32 %50, %51
  br i1 %52, label %53, label %63

53:                                               ; preds = %49
  %54 = load ptr, ptr %5, align 8, !tbaa !78
  %55 = getelementptr inbounds nuw %struct.buffer_slab, ptr %54, i32 0, i32 3
  %56 = load ptr, ptr %55, align 8, !tbaa !82
  %57 = load i32, ptr %10, align 4, !tbaa !11
  %58 = zext i32 %57 to i64
  %59 = getelementptr inbounds nuw ptr, ptr %56, i64 %58
  store ptr null, ptr %59, align 8, !tbaa !83
  br label %60

60:                                               ; preds = %53
  %61 = load i32, ptr %10, align 4, !tbaa !11
  %62 = add i32 %61, 1
  store i32 %62, ptr %10, align 4, !tbaa !11
  br label %49, !llvm.loop !231

63:                                               ; preds = %49
  %64 = load i32, ptr %8, align 4, !tbaa !11
  %65 = add i32 %64, 1
  %66 = load ptr, ptr %5, align 8, !tbaa !78
  %67 = getelementptr inbounds nuw %struct.buffer_slab, ptr %66, i32 0, i32 2
  store i32 %65, ptr %67, align 8, !tbaa !79
  store i32 0, ptr %11, align 4
  br label %68

68:                                               ; preds = %63, %34
  call void @llvm.lifetime.end.p0(i64 4, ptr %10) #11
  %69 = load i32, ptr %11, align 4
  switch i32 %69, label %116 [
    i32 0, label %70
  ]

70:                                               ; preds = %68
  br label %71

71:                                               ; preds = %70, %3
  %72 = load ptr, ptr %5, align 8, !tbaa !78
  %73 = getelementptr inbounds nuw %struct.buffer_slab, ptr %72, i32 0, i32 3
  %74 = load ptr, ptr %73, align 8, !tbaa !82
  %75 = load i32, ptr %8, align 4, !tbaa !11
  %76 = zext i32 %75 to i64
  %77 = getelementptr inbounds nuw ptr, ptr %74, i64 %76
  %78 = load ptr, ptr %77, align 8, !tbaa !83
  %79 = icmp ne ptr %78, null
  br i1 %79, label %101, label %80

80:                                               ; preds = %71
  %81 = load i32, ptr %7, align 4, !tbaa !11
  %82 = icmp ne i32 %81, 0
  br i1 %82, label %84, label %83

83:                                               ; preds = %80
  store ptr null, ptr %4, align 8
  store i32 1, ptr %11, align 4
  br label %116

84:                                               ; preds = %80
  %85 = load ptr, ptr %5, align 8, !tbaa !78
  %86 = getelementptr inbounds nuw %struct.buffer_slab, ptr %85, i32 0, i32 0
  %87 = load i32, ptr %86, align 8, !tbaa !230
  %88 = zext i32 %87 to i64
  %89 = load ptr, ptr %5, align 8, !tbaa !78
  %90 = getelementptr inbounds nuw %struct.buffer_slab, ptr %89, i32 0, i32 1
  %91 = load i32, ptr %90, align 4, !tbaa !229
  %92 = zext i32 %91 to i64
  %93 = mul i64 16, %92
  %94 = call ptr @xcalloc(i64 noundef %88, i64 noundef %93)
  %95 = load ptr, ptr %5, align 8, !tbaa !78
  %96 = getelementptr inbounds nuw %struct.buffer_slab, ptr %95, i32 0, i32 3
  %97 = load ptr, ptr %96, align 8, !tbaa !82
  %98 = load i32, ptr %8, align 4, !tbaa !11
  %99 = zext i32 %98 to i64
  %100 = getelementptr inbounds nuw ptr, ptr %97, i64 %99
  store ptr %94, ptr %100, align 8, !tbaa !83
  br label %101

101:                                              ; preds = %84, %71
  %102 = load ptr, ptr %5, align 8, !tbaa !78
  %103 = getelementptr inbounds nuw %struct.buffer_slab, ptr %102, i32 0, i32 3
  %104 = load ptr, ptr %103, align 8, !tbaa !82
  %105 = load i32, ptr %8, align 4, !tbaa !11
  %106 = zext i32 %105 to i64
  %107 = getelementptr inbounds nuw ptr, ptr %104, i64 %106
  %108 = load ptr, ptr %107, align 8, !tbaa !83
  %109 = load i32, ptr %9, align 4, !tbaa !11
  %110 = load ptr, ptr %5, align 8, !tbaa !78
  %111 = getelementptr inbounds nuw %struct.buffer_slab, ptr %110, i32 0, i32 1
  %112 = load i32, ptr %111, align 4, !tbaa !229
  %113 = mul i32 %109, %112
  %114 = zext i32 %113 to i64
  %115 = getelementptr inbounds nuw %struct.commit_buffer, ptr %108, i64 %114
  store ptr %115, ptr %4, align 8
  store i32 1, ptr %11, align 4
  br label %116

116:                                              ; preds = %101, %83, %68
  call void @llvm.lifetime.end.p0(i64 4, ptr %9) #11
  call void @llvm.lifetime.end.p0(i64 4, ptr %8) #11
  %117 = load ptr, ptr %4, align 8
  ret ptr %117
}

; Function Attrs: nounwind uwtable
define internal ptr @buffer_slab_peek(ptr noundef %0, ptr noundef %1) #0 {
  %3 = alloca ptr, align 8
  %4 = alloca ptr, align 8
  store ptr %0, ptr %3, align 8, !tbaa !78
  store ptr %1, ptr %4, align 8, !tbaa !17
  %5 = load ptr, ptr %3, align 8, !tbaa !78
  %6 = load ptr, ptr %4, align 8, !tbaa !17
  %7 = call ptr @buffer_slab_at_peek(ptr noundef %5, ptr noundef %6, i32 noundef 0)
  ret ptr %7
}

; Function Attrs: nounwind uwtable
define dso_local ptr @get_cached_commit_buffer(ptr noundef %0, ptr noundef %1, ptr noundef %2) #0 {
  %4 = alloca ptr, align 8
  %5 = alloca ptr, align 8
  %6 = alloca ptr, align 8
  %7 = alloca ptr, align 8
  %8 = alloca ptr, align 8
  %9 = alloca i32, align 4
  store ptr %0, ptr %5, align 8, !tbaa !4
  store ptr %1, ptr %6, align 8, !tbaa !17
  store ptr %2, ptr %7, align 8, !tbaa !90
  call void @llvm.lifetime.start.p0(i64 8, ptr %8) #11
  %10 = load ptr, ptr %5, align 8, !tbaa !4
  %11 = getelementptr inbounds nuw %struct.repository, ptr %10, i32 0, i32 3
  %12 = load ptr, ptr %11, align 8, !tbaa !20
  %13 = getelementptr inbounds nuw %struct.parsed_object_pool, ptr %12, i32 0, i32 17
  %14 = load ptr, ptr %13, align 8, !tbaa !86
  %15 = load ptr, ptr %6, align 8, !tbaa !17
  %16 = call ptr @buffer_slab_peek(ptr noundef %14, ptr noundef %15)
  store ptr %16, ptr %8, align 8, !tbaa !83
  %17 = load ptr, ptr %8, align 8, !tbaa !83
  %18 = icmp ne ptr %17, null
  br i1 %18, label %25, label %19

19:                                               ; preds = %3
  %20 = load ptr, ptr %7, align 8, !tbaa !90
  %21 = icmp ne ptr %20, null
  br i1 %21, label %22, label %24

22:                                               ; preds = %19
  %23 = load ptr, ptr %7, align 8, !tbaa !90
  store i64 0, ptr %23, align 8, !tbaa !47
  br label %24

24:                                               ; preds = %22, %19
  store ptr null, ptr %4, align 8
  store i32 1, ptr %9, align 4
  br label %37

25:                                               ; preds = %3
  %26 = load ptr, ptr %7, align 8, !tbaa !90
  %27 = icmp ne ptr %26, null
  br i1 %27, label %28, label %33

28:                                               ; preds = %25
  %29 = load ptr, ptr %8, align 8, !tbaa !83
  %30 = getelementptr inbounds nuw %struct.commit_buffer, ptr %29, i32 0, i32 1
  %31 = load i64, ptr %30, align 8, !tbaa !89
  %32 = load ptr, ptr %7, align 8, !tbaa !90
  store i64 %31, ptr %32, align 8, !tbaa !47
  br label %33

33:                                               ; preds = %28, %25
  %34 = load ptr, ptr %8, align 8, !tbaa !83
  %35 = getelementptr inbounds nuw %struct.commit_buffer, ptr %34, i32 0, i32 0
  %36 = load ptr, ptr %35, align 8, !tbaa !87
  store ptr %36, ptr %4, align 8
  store i32 1, ptr %9, align 4
  br label %37

37:                                               ; preds = %33, %24
  call void @llvm.lifetime.end.p0(i64 8, ptr %8) #11
  %38 = load ptr, ptr %4, align 8
  ret ptr %38
}

; Function Attrs: nounwind uwtable
define dso_local ptr @repo_get_commit_buffer(ptr noundef %0, ptr noundef %1, ptr noundef %2) #0 {
  %4 = alloca ptr, align 8
  %5 = alloca ptr, align 8
  %6 = alloca ptr, align 8
  %7 = alloca ptr, align 8
  %8 = alloca i32, align 4
  %9 = alloca i64, align 8
  store ptr %0, ptr %4, align 8, !tbaa !4
  store ptr %1, ptr %5, align 8, !tbaa !17
  store ptr %2, ptr %6, align 8, !tbaa !90
  call void @llvm.lifetime.start.p0(i64 8, ptr %7) #11
  %10 = load ptr, ptr %4, align 8, !tbaa !4
  %11 = load ptr, ptr %5, align 8, !tbaa !17
  %12 = load ptr, ptr %6, align 8, !tbaa !90
  %13 = call ptr @get_cached_commit_buffer(ptr noundef %10, ptr noundef %11, ptr noundef %12)
  store ptr %13, ptr %7, align 8, !tbaa !48
  %14 = load ptr, ptr %7, align 8, !tbaa !48
  %15 = icmp ne ptr %14, null
  br i1 %15, label %46, label %16

16:                                               ; preds = %3
  call void @llvm.lifetime.start.p0(i64 4, ptr %8) #11
  call void @llvm.lifetime.start.p0(i64 8, ptr %9) #11
  %17 = load ptr, ptr %4, align 8, !tbaa !4
  %18 = load ptr, ptr %5, align 8, !tbaa !17
  %19 = getelementptr inbounds nuw %struct.commit, ptr %18, i32 0, i32 0
  %20 = getelementptr inbounds nuw %struct.object, ptr %19, i32 0, i32 1
  %21 = call ptr @repo_read_object_file(ptr noundef %17, ptr noundef %20, ptr noundef %8, ptr noundef %9)
  store ptr %21, ptr %7, align 8, !tbaa !48
  %22 = load ptr, ptr %7, align 8, !tbaa !48
  %23 = icmp ne ptr %22, null
  br i1 %23, label %29, label %24

24:                                               ; preds = %16
  %25 = load ptr, ptr %5, align 8, !tbaa !17
  %26 = getelementptr inbounds nuw %struct.commit, ptr %25, i32 0, i32 0
  %27 = getelementptr inbounds nuw %struct.object, ptr %26, i32 0, i32 1
  %28 = call ptr @oid_to_hex(ptr noundef %27)
  call void (ptr, ...) @die(ptr noundef @.str.4, ptr noundef %28) #12
  unreachable

29:                                               ; preds = %16
  %30 = load i32, ptr %8, align 4, !tbaa !11
  %31 = icmp ne i32 %30, 1
  br i1 %31, label %32, label %39

32:                                               ; preds = %29
  %33 = load ptr, ptr %5, align 8, !tbaa !17
  %34 = getelementptr inbounds nuw %struct.commit, ptr %33, i32 0, i32 0
  %35 = getelementptr inbounds nuw %struct.object, ptr %34, i32 0, i32 1
  %36 = call ptr @oid_to_hex(ptr noundef %35)
  %37 = load i32, ptr %8, align 4, !tbaa !11
  %38 = call ptr @type_name(i32 noundef %37)
  call void (ptr, ...) @die(ptr noundef @.str.5, ptr noundef %36, ptr noundef %38) #12
  unreachable

39:                                               ; preds = %29
  %40 = load ptr, ptr %6, align 8, !tbaa !90
  %41 = icmp ne ptr %40, null
  br i1 %41, label %42, label %45

42:                                               ; preds = %39
  %43 = load i64, ptr %9, align 8, !tbaa !47
  %44 = load ptr, ptr %6, align 8, !tbaa !90
  store i64 %43, ptr %44, align 8, !tbaa !47
  br label %45

45:                                               ; preds = %42, %39
  call void @llvm.lifetime.end.p0(i64 8, ptr %9) #11
  call void @llvm.lifetime.end.p0(i64 4, ptr %8) #11
  br label %46

46:                                               ; preds = %45, %3
  %47 = load ptr, ptr %7, align 8, !tbaa !48
  call void @llvm.lifetime.end.p0(i64 8, ptr %7) #11
  ret ptr %47
}