; Function Attrs: nounwind uwtable
define dso_local nonnull ptr @repo_get_commit_buffer(ptr noundef %0, ptr noundef %1, ptr noundef writeonly %2) local_unnamed_addr #0 {
  %4 = alloca i32, align 4
  %5 = alloca i64, align 8
  %6 = getelementptr inbounds nuw i8, ptr %0, i64 24
  %7 = load ptr, ptr %6, align 8, !tbaa !12
  %8 = getelementptr inbounds nuw i8, ptr %7, i64 112
  %9 = load ptr, ptr %8, align 8, !tbaa !76
  %10 = getelementptr i8, ptr %1, i64 64
  %.val.i = load i32, ptr %10, align 8, !tbaa !77
  %11 = load i32, ptr %9, align 8, !tbaa !70
  %12 = udiv i32 %.val.i, %11
  %13 = urem i32 %.val.i, %11
  %14 = getelementptr inbounds nuw i8, ptr %9, i64 8
  %15 = load i32, ptr %14, align 8, !tbaa !71
  %.not.i.i.i = icmp ugt i32 %15, %12
  br i1 %.not.i.i.i, label %._crit_edge4.i.i.i, label %buffer_slab_peek.exit.thread.i

._crit_edge4.i.i.i:                               ; preds = %3
  %.phi.trans.insert.i.i.i = getelementptr inbounds nuw i8, ptr %9, i64 16
  %.pre.i.i.i = load ptr, ptr %.phi.trans.insert.i.i.i, align 8, !tbaa !72
  %16 = zext i32 %12 to i64
  %17 = getelementptr inbounds nuw ptr, ptr %.pre.i.i.i, i64 %16
  %18 = load ptr, ptr %17, align 8, !tbaa !73
  %.not35.i.i.i = icmp eq ptr %18, null
  br i1 %.not35.i.i.i, label %buffer_slab_peek.exit.thread.i, label %buffer_slab_peek.exit.i

buffer_slab_peek.exit.i:                          ; preds = %._crit_edge4.i.i.i
  %19 = getelementptr inbounds nuw i8, ptr %9, i64 4
  %20 = load i32, ptr %19, align 4, !tbaa !67
  %21 = mul i32 %20, %13
  %22 = zext i32 %21 to i64
  %23 = getelementptr inbounds nuw %struct.commit_buffer, ptr %18, i64 %22
  %.not13.i = icmp eq ptr %2, null
  br i1 %.not13.i, label %get_cached_commit_buffer.exit, label %25

buffer_slab_peek.exit.thread.i:                   ; preds = %._crit_edge4.i.i.i, %3
  %.not12.i = icmp eq ptr %2, null
  br i1 %.not12.i, label %get_cached_commit_buffer.exit.thread, label %24

24:                                               ; preds = %buffer_slab_peek.exit.thread.i
  store i64 0, ptr %2, align 8, !tbaa !82
  br label %get_cached_commit_buffer.exit.thread

25:                                               ; preds = %buffer_slab_peek.exit.i
  %26 = getelementptr inbounds nuw i8, ptr %23, i64 8
  %27 = load i64, ptr %26, align 8, !tbaa !81
  store i64 %27, ptr %2, align 8, !tbaa !82
  br label %get_cached_commit_buffer.exit

get_cached_commit_buffer.exit:                    ; preds = %buffer_slab_peek.exit.i, %25
  %28 = load ptr, ptr %23, align 8, !tbaa !79
  %.not = icmp eq ptr %28, null
  br i1 %.not, label %get_cached_commit_buffer.exit.thread, label %43

get_cached_commit_buffer.exit.thread:             ; preds = %buffer_slab_peek.exit.thread.i, %24, %get_cached_commit_buffer.exit
  call void @llvm.lifetime.start.p0(i64 4, ptr nonnull %4) #24
  call void @llvm.lifetime.start.p0(i64 8, ptr nonnull %5) #24
  %29 = getelementptr inbounds nuw i8, ptr %1, i64 4
  %30 = call ptr @repo_read_object_file(ptr noundef nonnull %0, ptr noundef nonnull %29, ptr noundef nonnull %4, ptr noundef nonnull %5) #24
  %.not15 = icmp eq ptr %30, null
  br i1 %.not15, label %31, label %33

31:                                               ; preds = %get_cached_commit_buffer.exit.thread
  %32 = call ptr @oid_to_hex(ptr noundef nonnull %29) #24
  call void (ptr, ...) @die(ptr noundef nonnull @.str.4, ptr noundef %32) #25
  unreachable

33:                                               ; preds = %get_cached_commit_buffer.exit.thread
  %34 = load i32, ptr %4, align 4, !tbaa !9
  %.not16 = icmp eq i32 %34, 1
  br i1 %.not16, label %39, label %35

35:                                               ; preds = %33
  %36 = call ptr @oid_to_hex(ptr noundef nonnull %29) #24
  %37 = load i32, ptr %4, align 4, !tbaa !9
  %38 = call ptr @type_name(i32 noundef %37) #24
  call void (ptr, ...) @die(ptr noundef nonnull @.str.5, ptr noundef %36, ptr noundef %38) #25
  unreachable

39:                                               ; preds = %33
  %.not17 = icmp eq ptr %2, null
  br i1 %.not17, label %42, label %40

40:                                               ; preds = %39
  %41 = load i64, ptr %5, align 8, !tbaa !82
  store i64 %41, ptr %2, align 8, !tbaa !82
  br label %42

42:                                               ; preds = %40, %39
  call void @llvm.lifetime.end.p0(i64 8, ptr nonnull %5) #24
  call void @llvm.lifetime.end.p0(i64 4, ptr nonnull %4) #24
  br label %43

43:                                               ; preds = %42, %get_cached_commit_buffer.exit
  %.0 = phi ptr [ %28, %get_cached_commit_buffer.exit ], [ %30, %42 ]
  ret ptr %.0
}